target datalayout = "e-m:e-p270:32:32-p271:32:32-p272:64:64-i64:64-i128:128-f80:128-n8:16:32:64-S128"
target triple = "x86_64-pc-linux-gnu"

%struct.darktable_t = type { %struct.dt_codepath_t, i32, i32, ptr, ptr, ptr, ptr, ptr, ptr, ptr, ptr, ptr, ptr, ptr, ptr, ptr, ptr, ptr, ptr, ptr, ptr, ptr, ptr, ptr, ptr, ptr, ptr, ptr, ptr, ptr, [64 x %struct.dt_pthread_mutex_t], %struct.dt_pthread_mutex_t, %struct.dt_pthread_mutex_t, %struct.dt_pthread_mutex_t, %struct.dt_pthread_mutex_t, %struct.dt_pthread_mutex_t, ptr, ptr, ptr, ptr, ptr, ptr, ptr, ptr, ptr, ptr, ptr, ptr, ptr, %struct.dt_lua_state_t, ptr, double, ptr, i32, [47 x i32], i32, i32, ptr, ptr, %struct.dt_sys_resources_t, %struct.dt_backthumb_t, %struct.dt_gimp_t }
%struct.dt_codepath_t = type { i8, [3 x i8] }
%struct.dt_pthread_mutex_t = type { %union.pthread_mutex_t }
%union.pthread_mutex_t = type { %struct.__pthread_mutex_s }
%struct.__pthread_mutex_s = type { i32, i32, i32, i32, i32, i16, i16, %struct.__pthread_internal_list }
%struct.__pthread_internal_list = type { ptr, ptr }
%struct.dt_lua_state_t = type { i32 }
%struct.dt_sys_resources_t = type { i64, i64, ptr, ptr, i32 }
%struct.dt_backthumb_t = type { double, double, i32, i32, i32, i32 }
%struct.dt_gimp_t = type { i32, ptr, ptr, i32, i32 }
%struct.dt_camctl_t = type { %struct.dt_pthread_mutex_t, %struct.dt_pthread_mutex_t, i64, ptr, ptr, ptr, ptr, ptr, ptr, ptr, ptr, i32, i32, i32 }
%struct.dt_camera_t = type { ptr, ptr, %struct.CameraText, ptr, ptr, %struct.dt_pthread_mutex_t, i32, i32, i32, i32, i32, i32, i32, i32, i32, ptr, %struct.dt_pthread_mutex_t, ptr, %struct.anon, ptr, ptr, i32, i32, i32, i32, ptr, i32, i32, i32, i32, i32, i32, i32, i32, i64, %struct.dt_pthread_mutex_t, %struct.dt_pthread_mutex_t }
%struct.CameraText = type { [32768 x i8] }
%struct.anon = type { ptr, i32 }

@darktable = external global %struct.darktable_t, align 8
@.str.30 = private unnamed_addr constant [71 x i8] c"[camera_control] failed to get property type from camera, camera==NULL\00", align 1
@.str.31 = private unnamed_addr constant [78 x i8] c"[camera_control] failed to get property %s from camera config. Error Code: %d\00", align 1
@.str.32 = private unnamed_addr constant [87 x i8] c"[camera_control] failed to get property type for %s from camera config. Error Code: %d\00", align 1

; Function Attrs: inlinehint nounwind uwtable
define internal i32 @dt_pthread_mutex_unlock(ptr noundef %0) #4 {
  %2 = alloca ptr, align 8
  store ptr %0, ptr %2, align 8, !tbaa !91
  %3 = load ptr, ptr %2, align 8, !tbaa !91
  %4 = getelementptr inbounds nuw %struct.dt_pthread_mutex_t, ptr %3, i32 0, i32 0
  %5 = call i32 @pthread_mutex_unlock(ptr noundef %4) #10
  ret i32 %5
}

; Function Attrs: inlinehint nounwind uwtable
define internal i32 @dt_pthread_mutex_lock(ptr noundef %0) #4 {
  %2 = alloca ptr, align 8
  store ptr %0, ptr %2, align 8, !tbaa !91
  %3 = load ptr, ptr %2, align 8, !tbaa !91
  %4 = getelementptr inbounds nuw %struct.dt_pthread_mutex_t, ptr %3, i32 0, i32 0
  %5 = call i32 @pthread_mutex_lock(ptr noundef %4) #10
  ret i32 %5
}

; Function Attrs: nounwind uwtable
define i32 @dt_camctl_camera_get_property_type(ptr noundef %0, ptr noundef %1, ptr noundef %2, ptr noundef %3) #0 {
  %5 = alloca i32, align 4
  %6 = alloca ptr, align 8
  %7 = alloca ptr, align 8
  %8 = alloca ptr, align 8
  %9 = alloca ptr, align 8
  %10 = alloca ptr, align 8
  %11 = alloca i32, align 4
  %12 = alloca ptr, align 8
  %13 = alloca i32, align 4
  %14 = alloca ptr, align 8
  %15 = alloca i32, align 4
  store ptr %0, ptr %6, align 8, !tbaa !6
  store ptr %1, ptr %7, align 8, !tbaa !21
  store ptr %2, ptr %8, align 8, !tbaa !63
  store ptr %3, ptr %9, align 8, !tbaa !72
  call void @llvm.lifetime.start.p0(i64 8, ptr %10) #10
  %16 = load ptr, ptr %6, align 8, !tbaa !6
  store ptr %16, ptr %10, align 8, !tbaa !6
  %17 = load ptr, ptr %7, align 8, !tbaa !21
  %18 = icmp ne ptr %17, null
  br i1 %18, label %43, label %19

19:                                               ; preds = %4
  %20 = load ptr, ptr %10, align 8, !tbaa !6
  %21 = getelementptr inbounds nuw %struct.dt_camctl_t, ptr %20, i32 0, i32 10
  %22 = load ptr, ptr %21, align 8, !tbaa !11
  store ptr %22, ptr %7, align 8, !tbaa !21
  %23 = icmp eq ptr %22, null
  br i1 %23, label %24, label %43

24:                                               ; preds = %19
  %25 = load ptr, ptr %10, align 8, !tbaa !6
  %26 = getelementptr inbounds nuw %struct.dt_camctl_t, ptr %25, i32 0, i32 9
  %27 = load ptr, ptr %26, align 8, !tbaa !65
  store ptr %27, ptr %7, align 8, !tbaa !21
  %28 = icmp eq ptr %27, null
  br i1 %28, label %29, label %43

29:                                               ; preds = %24
  br label %30

30:                                               ; preds = %29
  %31 = load i32, ptr getelementptr inbounds nuw (%struct.darktable_t, ptr @darktable, i32 0, i32 2), align 8, !tbaa !22
  %32 = and i32 32, %31
  %33 = icmp ne i32 %32, 0
  br i1 %33, label %34, label %40

34:                                               ; preds = %30
  %35 = load i32, ptr getelementptr inbounds nuw (%struct.darktable_t, ptr @darktable, i32 0, i32 2), align 8, !tbaa !22
  %36 = xor i32 %35, -1
  %37 = and i32 0, %36
  %38 = icmp ne i32 %37, 0
  br i1 %38, label %40, label %39

39:                                               ; preds = %34
  call void (ptr, ...) @dt_print_ext(ptr noundef @.str.30)
  br label %40

40:                                               ; preds = %39, %34, %30
  br label %41

41:                                               ; preds = %40
  br label %42

42:                                               ; preds = %41
  store i32 -1, ptr %5, align 4
  store i32 1, ptr %11, align 4
  br label %106

43:                                               ; preds = %24, %19, %4
  call void @llvm.lifetime.start.p0(i64 8, ptr %12) #10
  %44 = load ptr, ptr %7, align 8, !tbaa !21
  store ptr %44, ptr %12, align 8, !tbaa !21
  call void @llvm.lifetime.start.p0(i64 4, ptr %13) #10
  store i32 -1, ptr %13, align 4, !tbaa !64
  %45 = load ptr, ptr %12, align 8, !tbaa !21
  %46 = getelementptr inbounds nuw %struct.dt_camera_t, ptr %45, i32 0, i32 5
  %47 = call i32 @dt_pthread_mutex_lock(ptr noundef %46)
  call void @llvm.lifetime.start.p0(i64 8, ptr %14) #10
  call void @llvm.lifetime.start.p0(i64 4, ptr %15) #10
  %48 = load ptr, ptr %12, align 8, !tbaa !21
  %49 = getelementptr inbounds nuw %struct.dt_camera_t, ptr %48, i32 0, i32 3
  %50 = load ptr, ptr %49, align 8, !tbaa !98
  %51 = load ptr, ptr %8, align 8, !tbaa !63
  %52 = call i32 @gp_widget_get_child_by_name(ptr noundef %50, ptr noundef %51, ptr noundef %14)
  store i32 %52, ptr %15, align 4, !tbaa !64
  %53 = load i32, ptr %15, align 4, !tbaa !64
  %54 = icmp ne i32 %53, 0
  br i1 %54, label %55, label %71

55:                                               ; preds = %43
  br label %56

56:                                               ; preds = %55
  %57 = load i32, ptr getelementptr inbounds nuw (%struct.darktable_t, ptr @darktable, i32 0, i32 2), align 8, !tbaa !22
  %58 = and i32 32, %57
  %59 = icmp ne i32 %58, 0
  br i1 %59, label %60, label %68

60:                                               ; preds = %56
  %61 = load i32, ptr getelementptr inbounds nuw (%struct.darktable_t, ptr @darktable, i32 0, i32 2), align 8, !tbaa !22
  %62 = xor i32 %61, -1
  %63 = and i32 0, %62
  %64 = icmp ne i32 %63, 0
  br i1 %64, label %68, label %65

65:                                               ; preds = %60
  %66 = load ptr, ptr %8, align 8, !tbaa !63
  %67 = load i32, ptr %15, align 4, !tbaa !64
  call void (ptr, ...) @dt_print_ext(ptr noundef @.str.31, ptr noundef %66, i32 noundef %67)
  br label %68

68:                                               ; preds = %65, %60, %56
  br label %69

69:                                               ; preds = %68
  br label %70

70:                                               ; preds = %69
  br label %94

71:                                               ; preds = %43
  %72 = load ptr, ptr %14, align 8, !tbaa !155
  %73 = load ptr, ptr %9, align 8, !tbaa !72
  %74 = call i32 @gp_widget_get_type(ptr noundef %72, ptr noundef %73)
  store i32 %74, ptr %13, align 4, !tbaa !64
  %75 = load i32, ptr %13, align 4, !tbaa !64
  %76 = icmp ne i32 %75, 0
  br i1 %76, label %77, label %93

77:                                               ; preds = %71
  br label %78

78:                                               ; preds = %77
  %79 = load i32, ptr getelementptr inbounds nuw (%struct.darktable_t, ptr @darktable, i32 0, i32 2), align 8, !tbaa !22
  %80 = and i32 32, %79
  %81 = icmp ne i32 %80, 0
  br i1 %81, label %82, label %90

82:                                               ; preds = %78
  %83 = load i32, ptr getelementptr inbounds nuw (%struct.darktable_t, ptr @darktable, i32 0, i32 2), align 8, !tbaa !22
  %84 = xor i32 %83, -1
  %85 = and i32 0, %84
  %86 = icmp ne i32 %85, 0
  br i1 %86, label %90, label %87

87:                                               ; preds = %82
  %88 = load ptr, ptr %8, align 8, !tbaa !63
  %89 = load i32, ptr %13, align 4, !tbaa !64
  call void (ptr, ...) @dt_print_ext(ptr noundef @.str.32, ptr noundef %88, i32 noundef %89)
  br label %90

90:                                               ; preds = %87, %82, %78
  br label %91

91:                                               ; preds = %90
  br label %92

92:                                               ; preds = %91
  br label %93

93:                                               ; preds = %92, %71
  br label %94

94:                                               ; preds = %93, %70
  %95 = load ptr, ptr %12, align 8, !tbaa !21
  %96 = getelementptr inbounds nuw %struct.dt_camera_t, ptr %95, i32 0, i32 5
  %97 = call i32 @dt_pthread_mutex_unlock(ptr noundef %96)
  %98 = load i32, ptr %15, align 4, !tbaa !64
  %99 = icmp ne i32 %98, 0
  br i1 %99, label %103, label %100

100:                                              ; preds = %94
  %101 = load i32, ptr %13, align 4, !tbaa !64
  %102 = icmp ne i32 %101, 0
  br label %103

103:                                              ; preds = %100, %94
  %104 = phi i1 [ true, %94 ], [ %102, %100 ]
  %105 = zext i1 %104 to i32
  store i32 %105, ptr %5, align 4
  store i32 1, ptr %11, align 4
  call void @llvm.lifetime.end.p0(i64 4, ptr %15) #10
  call void @llvm.lifetime.end.p0(i64 8, ptr %14) #10
  call void @llvm.lifetime.end.p0(i64 4, ptr %13) #10
  call void @llvm.lifetime.end.p0(i64 8, ptr %12) #10
  br label %106

106:                                              ; preds = %103, %42
  call void @llvm.lifetime.end.p0(i64 8, ptr %10) #10
  %107 = load i32, ptr %5, align 4
  ret i32 %107
}