; Function Attrs: nounwind uwtable
define range(i32 -1, 2) i32 @dt_camctl_camera_get_property_type(ptr noundef readonly captures(none) %0, ptr noundef %1, ptr noundef %2, ptr noundef %3) local_unnamed_addr #0 {
  %5 = alloca ptr, align 8
  %.not = icmp eq ptr %1, null
  br i1 %.not, label %6, label %18

6:                                                ; preds = %4
  %7 = getelementptr inbounds nuw i8, ptr %0, i64 144
  %8 = load ptr, ptr %7, align 8, !tbaa !6
  %9 = icmp eq ptr %8, null
  br i1 %9, label %10, label %18

10:                                               ; preds = %6
  %11 = getelementptr inbounds nuw i8, ptr %0, i64 136
  %12 = load ptr, ptr %11, align 8, !tbaa !61
  %13 = icmp eq ptr %12, null
  br i1 %13, label %14, label %18

14:                                               ; preds = %10
  %15 = load i32, ptr getelementptr inbounds nuw (i8, ptr @darktable, i64 8), align 8, !tbaa !19
  %16 = and i32 %15, 32
  %.not25 = icmp eq i32 %16, 0
  br i1 %.not25, label %41, label %17

17:                                               ; preds = %14
  tail call void (ptr, ...) @dt_print_ext(ptr noundef nonnull @.str.30) #15
  br label %41

18:                                               ; preds = %10, %6, %4
  %.019 = phi ptr [ %1, %4 ], [ %12, %10 ], [ %8, %6 ]
  %19 = getelementptr inbounds nuw i8, ptr %.019, i64 32800
  %20 = tail call i32 @pthread_mutex_lock(ptr noundef nonnull %19) #15
  call void @llvm.lifetime.start.p0(i64 8, ptr nonnull %5) #15
  %21 = getelementptr inbounds nuw i8, ptr %.019, i64 32784
  %22 = load ptr, ptr %21, align 8, !tbaa !96
  %23 = call i32 @gp_widget_get_child_by_name(ptr noundef %22, ptr noundef %2, ptr noundef nonnull %5) #15
  %24 = icmp ne i32 %23, 0
  br i1 %24, label %25, label %29

25:                                               ; preds = %18
  %26 = load i32, ptr getelementptr inbounds nuw (i8, ptr @darktable, i64 8), align 8, !tbaa !19
  %27 = and i32 %26, 32
  %.not28 = icmp eq i32 %27, 0
  br i1 %.not28, label %36, label %28

28:                                               ; preds = %25
  call void (ptr, ...) @dt_print_ext(ptr noundef nonnull @.str.31, ptr noundef %2, i32 noundef %23) #15
  br label %36

29:                                               ; preds = %18
  %30 = load ptr, ptr %5, align 8, !tbaa !146
  %31 = call i32 @gp_widget_get_type(ptr noundef %30, ptr noundef %3) #15
  %.not26 = icmp eq i32 %31, 0
  br i1 %.not26, label %36, label %32

32:                                               ; preds = %29
  %33 = load i32, ptr getelementptr inbounds nuw (i8, ptr @darktable, i64 8), align 8, !tbaa !19
  %34 = and i32 %33, 32
  %.not27 = icmp eq i32 %34, 0
  br i1 %.not27, label %36, label %35

35:                                               ; preds = %32
  call void (ptr, ...) @dt_print_ext(ptr noundef nonnull @.str.32, ptr noundef %2, i32 noundef %31) #15
  br label %36

36:                                               ; preds = %29, %35, %32, %25, %28
  %37 = phi i1 [ true, %28 ], [ true, %25 ], [ true, %35 ], [ true, %32 ], [ false, %29 ]
  %38 = call i32 @pthread_mutex_unlock(ptr noundef nonnull %19) #15
  %39 = or i1 %24, %37
  %40 = zext i1 %39 to i32
  call void @llvm.lifetime.end.p0(i64 8, ptr nonnull %5) #15
  br label %41

41:                                               ; preds = %14, %17, %36
  %.0 = phi i32 [ %40, %36 ], [ -1, %17 ], [ -1, %14 ]
  ret i32 %.0
}